target datalayout = "e-m:e-p270:32:32-p271:32:32-p272:64:64-i64:64-i128:128-f80:128-n8:16:32:64-S128"
target triple = "x86_64-pc-linux-gnu"

%struct._zval_struct = type { %union._zend_value, %union.anon.9, %union.anon.12 }
%union._zend_value = type { i64 }
%union.anon.9 = type { i32 }
%union.anon.12 = type { i32 }
%struct._zend_op_array = type { i8, [3 x i8], i32, ptr, ptr, ptr, i32, i32, ptr, ptr, ptr, ptr, i32, i32, i32, i32, ptr, ptr, ptr, ptr, ptr, i32, i32, ptr, ptr, ptr, i32, i32, i32, i32, ptr, ptr, [6 x ptr] }
%struct._zend_refcounted_h = type { i32, %union.anon.0 }
%union.anon.0 = type { i32 }
%struct._zend_fcall_info_cache = type { ptr, ptr, ptr, ptr, ptr }
%struct.xml_parser = type { ptr, ptr, %struct._zval_struct, ptr, %struct._zend_fcall_info_cache, %struct._zend_fcall_info_cache, %struct._zend_fcall_info_cache, %struct._zend_fcall_info_cache, %struct._zend_fcall_info_cache, %struct._zend_fcall_info_cache, %struct._zend_fcall_info_cache, %struct._zend_fcall_info_cache, %struct._zend_fcall_info_cache, %struct._zend_fcall_info_cache, %struct._zval_struct, %struct._zval_struct, i32, i32, i32, ptr, ptr, i8, i8, i8, i8, i8, ptr, %struct._zend_object }
%struct._zend_object = type { %struct._zend_refcounted_h, i32, ptr, ptr, ptr, [1 x %struct._zval_struct] }
%struct._zend_refcounted = type { %struct._zend_refcounted_h }
%struct._zend_string = type { %struct._zend_refcounted_h, i64, i64, [1 x i8] }
%struct.anon.13 = type { i8, [3 x i8], i32, ptr, ptr, ptr, i32, i32, ptr, ptr, ptr, ptr, i32 }

; Function Attrs: nounwind uwtable
define internal i32 @_xml_xmlcharlen(ptr noundef %0) #0 {
  %2 = alloca ptr, align 8
  %3 = alloca i32, align 4
  store ptr %0, ptr %2, align 8
  store i32 0, ptr %3, align 4
  br label %4

4:                                                ; preds = %8, %1
  %5 = load ptr, ptr %2, align 8
  %6 = load i8, ptr %5, align 1
  %7 = icmp ne i8 %6, 0
  br i1 %7, label %8, label %13

8:                                                ; preds = %4
  %9 = load i32, ptr %3, align 4
  %10 = add nsw i32 %9, 1
  store i32 %10, ptr %3, align 4
  %11 = load ptr, ptr %2, align 8
  %12 = getelementptr inbounds i8, ptr %11, i32 1
  store ptr %12, ptr %2, align 8
  br label %4

13:                                               ; preds = %4
  %14 = load i32, ptr %3, align 4
  ret i32 %14
}

; Function Attrs: nounwind uwtable
define internal void @_xml_xmlchar_zval(ptr noundef %0, i32 noundef %1, ptr noundef %2, ptr noundef %3) #0 {
  %5 = alloca i32, align 4
  %6 = alloca ptr, align 8
  %7 = alloca i32, align 4
  %8 = alloca ptr, align 8
  %9 = alloca ptr, align 8
  %10 = alloca ptr, align 8
  %11 = alloca ptr, align 8
  store ptr %0, ptr %6, align 8
  store i32 %1, ptr %7, align 4
  store ptr %2, ptr %8, align 8
  store ptr %3, ptr %9, align 8
  %12 = load ptr, ptr %6, align 8
  %13 = icmp eq ptr %12, null
  br i1 %13, label %14, label %19

14:                                               ; preds = %4
  br label %15

15:                                               ; preds = %14
  %16 = load ptr, ptr %9, align 8
  %17 = getelementptr inbounds %struct._zval_struct, ptr %16, i32 0, i32 1
  store i32 2, ptr %17, align 8
  br label %18

18:                                               ; preds = %15
  br label %47

19:                                               ; preds = %4
  %20 = load i32, ptr %7, align 4
  %21 = icmp eq i32 %20, 0
  br i1 %21, label %22, label %25

22:                                               ; preds = %19
  %23 = load ptr, ptr %6, align 8
  %24 = call i32 @_xml_xmlcharlen(ptr noundef %23)
  store i32 %24, ptr %7, align 4
  br label %25

25:                                               ; preds = %22, %19
  br label %26

26:                                               ; preds = %25
  %27 = load ptr, ptr %9, align 8
  store ptr %27, ptr %10, align 8
  %28 = load ptr, ptr %6, align 8
  %29 = load i32, ptr %7, align 4
  %30 = sext i32 %29 to i64
  %31 = load ptr, ptr %8, align 8
  %32 = call ptr @xml_utf8_decode(ptr noundef %28, i64 noundef %30, ptr noundef %31)
  store ptr %32, ptr %11, align 8
  %33 = load ptr, ptr %11, align 8
  %34 = load ptr, ptr %10, align 8
  %35 = getelementptr inbounds %struct._zval_struct, ptr %34, i32 0, i32 0
  store ptr %33, ptr %35, align 8
  %36 = load ptr, ptr %11, align 8
  %37 = getelementptr inbounds %struct._zend_string, ptr %36, i32 0, i32 0
  %38 = getelementptr inbounds %struct._zend_refcounted_h, ptr %37, i32 0, i32 1
  %39 = load i32, ptr %38, align 4
  store i32 %39, ptr %5, align 4
  %40 = load i32, ptr %5, align 4
  %41 = and i32 %40, 1008
  %42 = and i32 %41, 64
  %43 = icmp ne i32 %42, 0
  %44 = select i1 %43, i32 6, i32 262
  %45 = load ptr, ptr %10, align 8
  %46 = getelementptr inbounds %struct._zval_struct, ptr %45, i32 0, i32 1
  store i32 %44, ptr %46, align 8
  br label %47

47:                                               ; preds = %26, %18
  ret void
}

; Function Attrs: nounwind uwtable
define hidden void @_xml_unparsedEntityDeclHandler(ptr noundef %0, ptr noundef %1, ptr noundef %2, ptr noundef %3, ptr noundef %4, ptr noundef %5) #0 {
  %7 = alloca i32, align 4
  %8 = alloca ptr, align 8
  %9 = alloca i32, align 4
  %10 = alloca ptr, align 8
  %11 = alloca ptr, align 8
  %12 = alloca ptr, align 8
  %13 = alloca i32, align 4
  %14 = alloca ptr, align 8
  %15 = alloca ptr, align 8
  %16 = alloca ptr, align 8
  %17 = alloca ptr, align 8
  %18 = alloca ptr, align 8
  %19 = alloca ptr, align 8
  %20 = alloca ptr, align 8
  %21 = alloca ptr, align 8
  %22 = alloca ptr, align 8
  %23 = alloca ptr, align 8
  %24 = alloca ptr, align 8
  %25 = alloca [6 x %struct._zval_struct], align 16
  %26 = alloca ptr, align 8
  %27 = alloca ptr, align 8
  %28 = alloca ptr, align 8
  %29 = alloca i32, align 4
  store ptr %0, ptr %18, align 8
  store ptr %1, ptr %19, align 8
  store ptr %2, ptr %20, align 8
  store ptr %3, ptr %21, align 8
  store ptr %4, ptr %22, align 8
  store ptr %5, ptr %23, align 8
  %30 = load ptr, ptr %18, align 8
  store ptr %30, ptr %24, align 8
  %31 = load ptr, ptr %24, align 8
  %32 = icmp ne ptr %31, null
  br i1 %32, label %33, label %39

33:                                               ; preds = %6
  %34 = load ptr, ptr %24, align 8
  %35 = getelementptr inbounds %struct.xml_parser, ptr %34, i32 0, i32 9
  %36 = getelementptr inbounds %struct._zend_fcall_info_cache, ptr %35, i32 0, i32 0
  %37 = load ptr, ptr %36, align 8
  %38 = icmp ne ptr %37, null
  br i1 %38, label %40, label %39

39:                                               ; preds = %33, %6
  br label %145

40:                                               ; preds = %33
  br label %41

41:                                               ; preds = %40
  %42 = getelementptr inbounds [6 x %struct._zval_struct], ptr %25, i64 0, i64 0
  store ptr %42, ptr %26, align 8
  %43 = load ptr, ptr %24, align 8
  %44 = getelementptr inbounds %struct.xml_parser, ptr %43, i32 0, i32 2
  store ptr %44, ptr %27, align 8
  %45 = load ptr, ptr %27, align 8
  %46 = getelementptr inbounds %struct._zval_struct, ptr %45, i32 0, i32 0
  %47 = load ptr, ptr %46, align 8
  store ptr %47, ptr %28, align 8
  %48 = load ptr, ptr %27, align 8
  %49 = getelementptr inbounds %struct._zval_struct, ptr %48, i32 0, i32 1
  %50 = load i32, ptr %49, align 8
  store i32 %50, ptr %29, align 4
  br label %51

51:                                               ; preds = %41
  %52 = load ptr, ptr %28, align 8
  %53 = load ptr, ptr %26, align 8
  %54 = getelementptr inbounds %struct._zval_struct, ptr %53, i32 0, i32 0
  store ptr %52, ptr %54, align 8
  %55 = load i32, ptr %29, align 4
  %56 = load ptr, ptr %26, align 8
  %57 = getelementptr inbounds %struct._zval_struct, ptr %56, i32 0, i32 1
  store i32 %55, ptr %57, align 8
  br label %58

58:                                               ; preds = %51
  %59 = load i32, ptr %29, align 4
  %60 = and i32 %59, 65280
  %61 = icmp ne i32 %60, 0
  br i1 %61, label %62, label %68

62:                                               ; preds = %58
  %63 = load ptr, ptr %28, align 8
  %64 = getelementptr inbounds %struct._zend_refcounted, ptr %63, i32 0, i32 0
  store ptr %64, ptr %17, align 8
  %65 = load ptr, ptr %17, align 8
  %66 = load i32, ptr %65, align 4
  %67 = add i32 %66, 1
  store i32 %67, ptr %65, align 4
  br label %68

68:                                               ; preds = %62, %58
  br label %69

69:                                               ; preds = %68
  %70 = load ptr, ptr %19, align 8
  %71 = load ptr, ptr %24, align 8
  %72 = getelementptr inbounds %struct.xml_parser, ptr %71, i32 0, i32 1
  %73 = load ptr, ptr %72, align 8
  %74 = getelementptr inbounds [6 x %struct._zval_struct], ptr %25, i64 0, i64 1
  call void @_xml_xmlchar_zval(ptr noundef %70, i32 noundef 0, ptr noundef %73, ptr noundef %74)
  %75 = load ptr, ptr %20, align 8
  %76 = load ptr, ptr %24, align 8
  %77 = getelementptr inbounds %struct.xml_parser, ptr %76, i32 0, i32 1
  %78 = load ptr, ptr %77, align 8
  %79 = getelementptr inbounds [6 x %struct._zval_struct], ptr %25, i64 0, i64 2
  call void @_xml_xmlchar_zval(ptr noundef %75, i32 noundef 0, ptr noundef %78, ptr noundef %79)
  %80 = load ptr, ptr %21, align 8
  %81 = load ptr, ptr %24, align 8
  %82 = getelementptr inbounds %struct.xml_parser, ptr %81, i32 0, i32 1
  %83 = load ptr, ptr %82, align 8
  %84 = getelementptr inbounds [6 x %struct._zval_struct], ptr %25, i64 0, i64 3
  call void @_xml_xmlchar_zval(ptr noundef %80, i32 noundef 0, ptr noundef %83, ptr noundef %84)
  %85 = load ptr, ptr %22, align 8
  %86 = load ptr, ptr %24, align 8
  %87 = getelementptr inbounds %struct.xml_parser, ptr %86, i32 0, i32 1
  %88 = load ptr, ptr %87, align 8
  %89 = getelementptr inbounds [6 x %struct._zval_struct], ptr %25, i64 0, i64 4
  call void @_xml_xmlchar_zval(ptr noundef %85, i32 noundef 0, ptr noundef %88, ptr noundef %89)
  %90 = load ptr, ptr %23, align 8
  %91 = load ptr, ptr %24, align 8
  %92 = getelementptr inbounds %struct.xml_parser, ptr %91, i32 0, i32 1
  %93 = load ptr, ptr %92, align 8
  %94 = getelementptr inbounds [6 x %struct._zval_struct], ptr %25, i64 0, i64 5
  call void @_xml_xmlchar_zval(ptr noundef %90, i32 noundef 0, ptr noundef %93, ptr noundef %94)
  %95 = load ptr, ptr %24, align 8
  %96 = getelementptr inbounds %struct.xml_parser, ptr %95, i32 0, i32 9
  %97 = getelementptr inbounds [6 x %struct._zval_struct], ptr %25, i64 0, i64 0
  store ptr %96, ptr %11, align 8
  store ptr null, ptr %12, align 8
  store i32 6, ptr %13, align 4
  store ptr %97, ptr %14, align 8
  store ptr null, ptr %15, align 8
  %98 = load ptr, ptr %11, align 8
  %99 = load ptr, ptr %98, align 8
  store ptr %99, ptr %16, align 8
  %100 = load ptr, ptr %16, align 8
  %101 = getelementptr inbounds %struct.anon.13, ptr %100, i32 0, i32 2
  %102 = load i32, ptr %101, align 4
  %103 = and i32 %102, 262144
  %104 = icmp ne i32 %103, 0
  br i1 %104, label %105, label %127

105:                                              ; preds = %69
  %106 = call noalias ptr @_emalloc_256() #11
  store ptr %106, ptr %16, align 8
  %107 = load ptr, ptr %16, align 8
  %108 = load ptr, ptr %11, align 8
  %109 = load ptr, ptr %108, align 8
  call void @llvm.memcpy.p0.p0.i64(ptr align 8 %107, ptr align 8 %109, i64 240, i1 false)
  %110 = load ptr, ptr %16, align 8
  %111 = getelementptr inbounds %struct._zend_op_array, ptr %110, i32 0, i32 3
  %112 = load ptr, ptr %111, align 8
  store ptr %112, ptr %10, align 8
  %113 = load ptr, ptr %10, align 8
  %114 = getelementptr inbounds %struct._zend_refcounted_h, ptr %113, i32 0, i32 1
  %115 = load i32, ptr %114, align 4
  store i32 %115, ptr %7, align 4
  %116 = load i32, ptr %7, align 4
  %117 = and i32 %116, 1008
  %118 = and i32 %117, 64
  %119 = icmp ne i32 %118, 0
  br i1 %119, label %125, label %120

120:                                              ; preds = %105
  %121 = load ptr, ptr %10, align 8
  store ptr %121, ptr %8, align 8
  %122 = load ptr, ptr %8, align 8
  %123 = load i32, ptr %122, align 4
  %124 = add i32 %123, 1
  store i32 %124, ptr %122, align 4
  store i32 %124, ptr %9, align 4
  br label %126

125:                                              ; preds = %105
  store i32 1, ptr %9, align 4
  br label %126

126:                                              ; preds = %125, %120
  br label %127

127:                                              ; preds = %126, %69
  %128 = load ptr, ptr %16, align 8
  %129 = load ptr, ptr %11, align 8
  %130 = getelementptr inbounds %struct._zend_fcall_info_cache, ptr %129, i32 0, i32 3
  %131 = load ptr, ptr %130, align 8
  %132 = load ptr, ptr %11, align 8
  %133 = getelementptr inbounds %struct._zend_fcall_info_cache, ptr %132, i32 0, i32 2
  %134 = load ptr, ptr %133, align 8
  %135 = load ptr, ptr %12, align 8
  %136 = load i32, ptr %13, align 4
  %137 = load ptr, ptr %14, align 8
  %138 = load ptr, ptr %15, align 8
  call void @zend_call_known_function(ptr noundef %128, ptr noundef %131, ptr noundef %134, ptr noundef %135, i32 noundef %136, ptr noundef %137, ptr noundef %138) #11
  %139 = getelementptr inbounds [6 x %struct._zval_struct], ptr %25, i64 0, i64 0
  call void @zval_ptr_dtor(ptr noundef %139)
  %140 = getelementptr inbounds [6 x %struct._zval_struct], ptr %25, i64 0, i64 1
  call void @zval_ptr_dtor(ptr noundef %140)
  %141 = getelementptr inbounds [6 x %struct._zval_struct], ptr %25, i64 0, i64 2
  call void @zval_ptr_dtor(ptr noundef %141)
  %142 = getelementptr inbounds [6 x %struct._zval_struct], ptr %25, i64 0, i64 3
  call void @zval_ptr_dtor(ptr noundef %142)
  %143 = getelementptr inbounds [6 x %struct._zval_struct], ptr %25, i64 0, i64 4
  call void @zval_ptr_dtor(ptr noundef %143)
  %144 = getelementptr inbounds [6 x %struct._zval_struct], ptr %25, i64 0, i64 5
  call void @zval_ptr_dtor(ptr noundef %144)
  br label %145

145:                                              ; preds = %127, %39
  ret void
}