; Function Attrs: nounwind uwtable
define hidden void @_xml_unparsedEntityDeclHandler(ptr noundef readonly %0, ptr noundef %1, ptr noundef %2, ptr noundef %3, ptr noundef %4, ptr noundef %5) #0 {
  %7 = alloca [6 x %struct._zval_struct], align 16
  %.not = icmp eq ptr %0, null
  br i1 %.not, label %118, label %8

8:                                                ; preds = %6
  %9 = getelementptr inbounds i8, ptr %0, i64 240
  %10 = load ptr, ptr %9, align 8
  %.not40 = icmp eq ptr %10, null
  br i1 %.not40, label %118, label %11

11:                                               ; preds = %8
  %12 = getelementptr inbounds i8, ptr %0, i64 16
  %13 = load ptr, ptr %12, align 8
  %14 = getelementptr inbounds i8, ptr %0, i64 24
  %15 = load i32, ptr %14, align 8
  store ptr %13, ptr %7, align 16
  %16 = getelementptr inbounds i8, ptr %7, i64 8
  store i32 %15, ptr %16, align 8
  %17 = and i32 %15, 65280
  %.not41 = icmp eq i32 %17, 0
  br i1 %.not41, label %21, label %18

18:                                               ; preds = %11
  %19 = load i32, ptr %13, align 4
  %20 = add i32 %19, 1
  store i32 %20, ptr %13, align 4
  br label %21

21:                                               ; preds = %11, %18
  %22 = getelementptr inbounds i8, ptr %0, i64 8
  %23 = load ptr, ptr %22, align 8
  %24 = getelementptr inbounds i8, ptr %7, i64 16
  %25 = icmp eq ptr %1, null
  br i1 %25, label %_xml_xmlchar_zval.exit, label %26

26:                                               ; preds = %21
  %27 = load i8, ptr %1, align 1
  %.not4.i.i = icmp eq i8 %27, 0
  br i1 %.not4.i.i, label %_xml_xmlcharlen.exit.i, label %.lr.ph.i.i

.lr.ph.i.i:                                       ; preds = %26, %.lr.ph.i.i
  %.06.i.i = phi i32 [ %28, %.lr.ph.i.i ], [ 0, %26 ]
  %.035.i.i = phi ptr [ %29, %.lr.ph.i.i ], [ %1, %26 ]
  %28 = add nuw nsw i32 %.06.i.i, 1
  %29 = getelementptr inbounds i8, ptr %.035.i.i, i64 1
  %30 = load i8, ptr %29, align 1
  %.not.i.i = icmp eq i8 %30, 0
  br i1 %.not.i.i, label %_xml_xmlcharlen.exit.i.loopexit, label %.lr.ph.i.i

_xml_xmlcharlen.exit.i.loopexit:                  ; preds = %.lr.ph.i.i
  %31 = zext nneg i32 %28 to i64
  br label %_xml_xmlcharlen.exit.i

_xml_xmlcharlen.exit.i:                           ; preds = %_xml_xmlcharlen.exit.i.loopexit, %26
  %.0.i = phi i64 [ 0, %26 ], [ %31, %_xml_xmlcharlen.exit.i.loopexit ]
  %32 = tail call fastcc ptr @xml_utf8_decode(ptr noundef nonnull %1, i64 noundef %.0.i, ptr noundef %23)
  store ptr %32, ptr %24, align 16
  %33 = getelementptr inbounds i8, ptr %32, i64 4
  %34 = load i32, ptr %33, align 4
  %35 = and i32 %34, 64
  %.not.i = icmp eq i32 %35, 0
  %36 = select i1 %.not.i, i32 262, i32 6
  %.pre = load ptr, ptr %22, align 8
  br label %_xml_xmlchar_zval.exit

_xml_xmlchar_zval.exit:                           ; preds = %21, %_xml_xmlcharlen.exit.i
  %37 = phi ptr [ %.pre, %_xml_xmlcharlen.exit.i ], [ %23, %21 ]
  %.sink.i = phi i32 [ %36, %_xml_xmlcharlen.exit.i ], [ 2, %21 ]
  %38 = getelementptr inbounds i8, ptr %7, i64 24
  store i32 %.sink.i, ptr %38, align 8
  %39 = getelementptr inbounds i8, ptr %7, i64 32
  %40 = icmp eq ptr %2, null
  br i1 %40, label %_xml_xmlchar_zval.exit53, label %41

41:                                               ; preds = %_xml_xmlchar_zval.exit
  %42 = load i8, ptr %2, align 1
  %.not4.i.i44 = icmp eq i8 %42, 0
  br i1 %.not4.i.i44, label %_xml_xmlcharlen.exit.i49, label %.lr.ph.i.i45

.lr.ph.i.i45:                                     ; preds = %41, %.lr.ph.i.i45
  %.06.i.i46 = phi i32 [ %43, %.lr.ph.i.i45 ], [ 0, %41 ]
  %.035.i.i47 = phi ptr [ %44, %.lr.ph.i.i45 ], [ %2, %41 ]
  %43 = add nuw nsw i32 %.06.i.i46, 1
  %44 = getelementptr inbounds i8, ptr %.035.i.i47, i64 1
  %45 = load i8, ptr %44, align 1
  %.not.i.i48 = icmp eq i8 %45, 0
  br i1 %.not.i.i48, label %_xml_xmlcharlen.exit.i49.loopexit, label %.lr.ph.i.i45

_xml_xmlcharlen.exit.i49.loopexit:                ; preds = %.lr.ph.i.i45
  %46 = zext nneg i32 %43 to i64
  br label %_xml_xmlcharlen.exit.i49

_xml_xmlcharlen.exit.i49:                         ; preds = %_xml_xmlcharlen.exit.i49.loopexit, %41
  %.0.i50 = phi i64 [ 0, %41 ], [ %46, %_xml_xmlcharlen.exit.i49.loopexit ]
  %47 = tail call fastcc ptr @xml_utf8_decode(ptr noundef nonnull %2, i64 noundef %.0.i50, ptr noundef %37)
  store ptr %47, ptr %39, align 16
  %48 = getelementptr inbounds i8, ptr %47, i64 4
  %49 = load i32, ptr %48, align 4
  %50 = and i32 %49, 64
  %.not.i51 = icmp eq i32 %50, 0
  %51 = select i1 %.not.i51, i32 262, i32 6
  %.pre92 = load ptr, ptr %22, align 8
  br label %_xml_xmlchar_zval.exit53

_xml_xmlchar_zval.exit53:                         ; preds = %_xml_xmlchar_zval.exit, %_xml_xmlcharlen.exit.i49
  %52 = phi ptr [ %.pre92, %_xml_xmlcharlen.exit.i49 ], [ %37, %_xml_xmlchar_zval.exit ]
  %.sink.i52 = phi i32 [ %51, %_xml_xmlcharlen.exit.i49 ], [ 2, %_xml_xmlchar_zval.exit ]
  %53 = getelementptr inbounds i8, ptr %7, i64 40
  store i32 %.sink.i52, ptr %53, align 8
  %54 = getelementptr inbounds i8, ptr %7, i64 48
  %55 = icmp eq ptr %3, null
  br i1 %55, label %_xml_xmlchar_zval.exit63, label %56

56:                                               ; preds = %_xml_xmlchar_zval.exit53
  %57 = load i8, ptr %3, align 1
  %.not4.i.i54 = icmp eq i8 %57, 0
  br i1 %.not4.i.i54, label %_xml_xmlcharlen.exit.i59, label %.lr.ph.i.i55

.lr.ph.i.i55:                                     ; preds = %56, %.lr.ph.i.i55
  %.06.i.i56 = phi i32 [ %58, %.lr.ph.i.i55 ], [ 0, %56 ]
  %.035.i.i57 = phi ptr [ %59, %.lr.ph.i.i55 ], [ %3, %56 ]
  %58 = add nuw nsw i32 %.06.i.i56, 1
  %59 = getelementptr inbounds i8, ptr %.035.i.i57, i64 1
  %60 = load i8, ptr %59, align 1
  %.not.i.i58 = icmp eq i8 %60, 0
  br i1 %.not.i.i58, label %_xml_xmlcharlen.exit.i59.loopexit, label %.lr.ph.i.i55

_xml_xmlcharlen.exit.i59.loopexit:                ; preds = %.lr.ph.i.i55
  %61 = zext nneg i32 %58 to i64
  br label %_xml_xmlcharlen.exit.i59

_xml_xmlcharlen.exit.i59:                         ; preds = %_xml_xmlcharlen.exit.i59.loopexit, %56
  %.0.i60 = phi i64 [ 0, %56 ], [ %61, %_xml_xmlcharlen.exit.i59.loopexit ]
  %62 = tail call fastcc ptr @xml_utf8_decode(ptr noundef nonnull %3, i64 noundef %.0.i60, ptr noundef %52)
  store ptr %62, ptr %54, align 16
  %63 = getelementptr inbounds i8, ptr %62, i64 4
  %64 = load i32, ptr %63, align 4
  %65 = and i32 %64, 64
  %.not.i61 = icmp eq i32 %65, 0
  %66 = select i1 %.not.i61, i32 262, i32 6
  %.pre93 = load ptr, ptr %22, align 8
  br label %_xml_xmlchar_zval.exit63

_xml_xmlchar_zval.exit63:                         ; preds = %_xml_xmlchar_zval.exit53, %_xml_xmlcharlen.exit.i59
  %67 = phi ptr [ %.pre93, %_xml_xmlcharlen.exit.i59 ], [ %52, %_xml_xmlchar_zval.exit53 ]
  %.sink.i62 = phi i32 [ %66, %_xml_xmlcharlen.exit.i59 ], [ 2, %_xml_xmlchar_zval.exit53 ]
  %68 = getelementptr inbounds i8, ptr %7, i64 56
  store i32 %.sink.i62, ptr %68, align 8
  %69 = getelementptr inbounds i8, ptr %7, i64 64
  %70 = icmp eq ptr %4, null
  br i1 %70, label %_xml_xmlchar_zval.exit73, label %71

71:                                               ; preds = %_xml_xmlchar_zval.exit63
  %72 = load i8, ptr %4, align 1
  %.not4.i.i64 = icmp eq i8 %72, 0
  br i1 %.not4.i.i64, label %_xml_xmlcharlen.exit.i69, label %.lr.ph.i.i65

.lr.ph.i.i65:                                     ; preds = %71, %.lr.ph.i.i65
  %.06.i.i66 = phi i32 [ %73, %.lr.ph.i.i65 ], [ 0, %71 ]
  %.035.i.i67 = phi ptr [ %74, %.lr.ph.i.i65 ], [ %4, %71 ]
  %73 = add nuw nsw i32 %.06.i.i66, 1
  %74 = getelementptr inbounds i8, ptr %.035.i.i67, i64 1
  %75 = load i8, ptr %74, align 1
  %.not.i.i68 = icmp eq i8 %75, 0
  br i1 %.not.i.i68, label %_xml_xmlcharlen.exit.i69.loopexit, label %.lr.ph.i.i65

_xml_xmlcharlen.exit.i69.loopexit:                ; preds = %.lr.ph.i.i65
  %76 = zext nneg i32 %73 to i64
  br label %_xml_xmlcharlen.exit.i69

_xml_xmlcharlen.exit.i69:                         ; preds = %_xml_xmlcharlen.exit.i69.loopexit, %71
  %.0.i70 = phi i64 [ 0, %71 ], [ %76, %_xml_xmlcharlen.exit.i69.loopexit ]
  %77 = tail call fastcc ptr @xml_utf8_decode(ptr noundef nonnull %4, i64 noundef %.0.i70, ptr noundef %67)
  store ptr %77, ptr %69, align 16
  %78 = getelementptr inbounds i8, ptr %77, i64 4
  %79 = load i32, ptr %78, align 4
  %80 = and i32 %79, 64
  %.not.i71 = icmp eq i32 %80, 0
  %81 = select i1 %.not.i71, i32 262, i32 6
  %.pre94 = load ptr, ptr %22, align 8
  br label %_xml_xmlchar_zval.exit73

_xml_xmlchar_zval.exit73:                         ; preds = %_xml_xmlchar_zval.exit63, %_xml_xmlcharlen.exit.i69
  %82 = phi ptr [ %.pre94, %_xml_xmlcharlen.exit.i69 ], [ %67, %_xml_xmlchar_zval.exit63 ]
  %.sink.i72 = phi i32 [ %81, %_xml_xmlcharlen.exit.i69 ], [ 2, %_xml_xmlchar_zval.exit63 ]
  %83 = getelementptr inbounds i8, ptr %7, i64 72
  store i32 %.sink.i72, ptr %83, align 8
  %84 = getelementptr inbounds i8, ptr %7, i64 80
  %85 = icmp eq ptr %5, null
  br i1 %85, label %_xml_xmlchar_zval.exit83, label %86

86:                                               ; preds = %_xml_xmlchar_zval.exit73
  %87 = load i8, ptr %5, align 1
  %.not4.i.i74 = icmp eq i8 %87, 0
  br i1 %.not4.i.i74, label %_xml_xmlcharlen.exit.i79, label %.lr.ph.i.i75

.lr.ph.i.i75:                                     ; preds = %86, %.lr.ph.i.i75
  %.06.i.i76 = phi i32 [ %88, %.lr.ph.i.i75 ], [ 0, %86 ]
  %.035.i.i77 = phi ptr [ %89, %.lr.ph.i.i75 ], [ %5, %86 ]
  %88 = add nuw nsw i32 %.06.i.i76, 1
  %89 = getelementptr inbounds i8, ptr %.035.i.i77, i64 1
  %90 = load i8, ptr %89, align 1
  %.not.i.i78 = icmp eq i8 %90, 0
  br i1 %.not.i.i78, label %_xml_xmlcharlen.exit.i79.loopexit, label %.lr.ph.i.i75

_xml_xmlcharlen.exit.i79.loopexit:                ; preds = %.lr.ph.i.i75
  %91 = zext nneg i32 %88 to i64
  br label %_xml_xmlcharlen.exit.i79

_xml_xmlcharlen.exit.i79:                         ; preds = %_xml_xmlcharlen.exit.i79.loopexit, %86
  %.0.i80 = phi i64 [ 0, %86 ], [ %91, %_xml_xmlcharlen.exit.i79.loopexit ]
  %92 = tail call fastcc ptr @xml_utf8_decode(ptr noundef nonnull %5, i64 noundef %.0.i80, ptr noundef %82)
  store ptr %92, ptr %84, align 16
  %93 = getelementptr inbounds i8, ptr %92, i64 4
  %94 = load i32, ptr %93, align 4
  %95 = and i32 %94, 64
  %.not.i81 = icmp eq i32 %95, 0
  %96 = select i1 %.not.i81, i32 262, i32 6
  br label %_xml_xmlchar_zval.exit83

_xml_xmlchar_zval.exit83:                         ; preds = %_xml_xmlchar_zval.exit73, %_xml_xmlcharlen.exit.i79
  %.sink.i82 = phi i32 [ %96, %_xml_xmlcharlen.exit.i79 ], [ 2, %_xml_xmlchar_zval.exit73 ]
  %97 = getelementptr inbounds i8, ptr %7, i64 88
  store i32 %.sink.i82, ptr %97, align 8
  %98 = load ptr, ptr %9, align 8
  %99 = getelementptr inbounds i8, ptr %98, i64 4
  %100 = load i32, ptr %99, align 4
  %101 = and i32 %100, 262144
  %.not42 = icmp eq i32 %101, 0
  br i1 %.not42, label %113, label %102

102:                                              ; preds = %_xml_xmlchar_zval.exit83
  %103 = tail call noalias ptr @_emalloc_256() #16
  %104 = load ptr, ptr %9, align 8
  tail call void @llvm.memcpy.p0.p0.i64(ptr noundef nonnull align 8 dereferenceable(240) %103, ptr noundef nonnull align 8 dereferenceable(240) %104, i64 240, i1 false)
  %105 = getelementptr inbounds i8, ptr %103, i64 8
  %106 = load ptr, ptr %105, align 8
  %107 = getelementptr inbounds i8, ptr %106, i64 4
  %108 = load i32, ptr %107, align 4
  %109 = and i32 %108, 64
  %.not43 = icmp eq i32 %109, 0
  br i1 %.not43, label %110, label %113

110:                                              ; preds = %102
  %111 = load i32, ptr %106, align 4
  %112 = add i32 %111, 1
  store i32 %112, ptr %106, align 4
  br label %113

113:                                              ; preds = %102, %110, %_xml_xmlchar_zval.exit83
  %.0 = phi ptr [ %103, %110 ], [ %98, %_xml_xmlchar_zval.exit83 ], [ %103, %102 ]
  %114 = getelementptr inbounds i8, ptr %0, i64 264
  %115 = load ptr, ptr %114, align 8
  %116 = getelementptr inbounds i8, ptr %0, i64 256
  %117 = load ptr, ptr %116, align 8
  call void @zend_call_known_function(ptr noundef nonnull %.0, ptr noundef %115, ptr noundef %117, ptr noundef null, i32 noundef 6, ptr noundef nonnull %7, ptr noundef null) #16
  call void @zval_ptr_dtor(ptr noundef nonnull %7) #16
  call void @zval_ptr_dtor(ptr noundef nonnull %24) #16
  call void @zval_ptr_dtor(ptr noundef nonnull %39) #16
  call void @zval_ptr_dtor(ptr noundef nonnull %54) #16
  call void @zval_ptr_dtor(ptr noundef nonnull %69) #16
  call void @zval_ptr_dtor(ptr noundef nonnull %84) #16
  br label %118

118:                                              ; preds = %6, %8, %113
  ret void
}